target datalayout = "e-m:e-p270:32:32-p271:32:32-p272:64:64-i64:64-i128:128-f80:128-n8:16:32:64-S128"
target triple = "x86_64-pc-linux-gnu"

%"struct.llvm::TargetLoweringBase::AddrMode" = type { ptr, i64, i8, i64, i64 }

; Function Attrs: mustprogress nounwind uwtable
define dso_local noundef zeroext i1 @_ZNK4llvm18TargetLoweringBase21isLegalAddressingModeERKNS_10DataLayoutERKNS0_8AddrModeEPNS_4TypeEjPNS_11InstructionE(ptr noundef nonnull align 8 dereferenceable(408123) %0, ptr noundef nonnull align 8 dereferenceable(512) %1, ptr noundef nonnull align 8 dereferenceable(40) %2, ptr noundef %3, i32 noundef %4, ptr noundef %5) unnamed_addr #1 align 2 {
  %7 = alloca i1, align 1
  %8 = alloca ptr, align 8
  %9 = alloca ptr, align 8
  %10 = alloca ptr, align 8
  %11 = alloca ptr, align 8
  %12 = alloca i32, align 4
  %13 = alloca ptr, align 8
  store ptr %0, ptr %8, align 8
  store ptr %1, ptr %9, align 8
  store ptr %2, ptr %10, align 8
  store ptr %3, ptr %11, align 8
  store i32 %4, ptr %12, align 4
  store ptr %5, ptr %13, align 8
  %14 = load ptr, ptr %10, align 8
  %15 = getelementptr inbounds nuw %"struct.llvm::TargetLoweringBase::AddrMode", ptr %14, i32 0, i32 4
  %16 = load i64, ptr %15, align 8
  %17 = icmp ne i64 %16, 0
  br i1 %17, label %18, label %19

18:                                               ; preds = %6
  store i1 false, ptr %7, align 1
  br label %67

19:                                               ; preds = %6
  %20 = load ptr, ptr %10, align 8
  %21 = getelementptr inbounds nuw %"struct.llvm::TargetLoweringBase::AddrMode", ptr %20, i32 0, i32 1
  %22 = load i64, ptr %21, align 8
  %23 = icmp sle i64 %22, -65536
  br i1 %23, label %29, label %24

24:                                               ; preds = %19
  %25 = load ptr, ptr %10, align 8
  %26 = getelementptr inbounds nuw %"struct.llvm::TargetLoweringBase::AddrMode", ptr %25, i32 0, i32 1
  %27 = load i64, ptr %26, align 8
  %28 = icmp sge i64 %27, 65535
  br i1 %28, label %29, label %30

29:                                               ; preds = %24, %19
  store i1 false, ptr %7, align 1
  br label %67

30:                                               ; preds = %24
  %31 = load ptr, ptr %10, align 8
  %32 = getelementptr inbounds nuw %"struct.llvm::TargetLoweringBase::AddrMode", ptr %31, i32 0, i32 0
  %33 = load ptr, ptr %32, align 8
  %34 = icmp ne ptr %33, null
  br i1 %34, label %35, label %36

35:                                               ; preds = %30
  store i1 false, ptr %7, align 1
  br label %67

36:                                               ; preds = %30
  %37 = load ptr, ptr %10, align 8
  %38 = getelementptr inbounds nuw %"struct.llvm::TargetLoweringBase::AddrMode", ptr %37, i32 0, i32 3
  %39 = load i64, ptr %38, align 8
  switch i64 %39, label %65 [
    i64 0, label %40
    i64 1, label %41
    i64 2, label %53
  ]

40:                                               ; preds = %36
  br label %66

41:                                               ; preds = %36
  %42 = load ptr, ptr %10, align 8
  %43 = getelementptr inbounds nuw %"struct.llvm::TargetLoweringBase::AddrMode", ptr %42, i32 0, i32 2
  %44 = load i8, ptr %43, align 8
  %45 = trunc i8 %44 to i1
  br i1 %45, label %46, label %52

46:                                               ; preds = %41
  %47 = load ptr, ptr %10, align 8
  %48 = getelementptr inbounds nuw %"struct.llvm::TargetLoweringBase::AddrMode", ptr %47, i32 0, i32 1
  %49 = load i64, ptr %48, align 8
  %50 = icmp ne i64 %49, 0
  br i1 %50, label %51, label %52

51:                                               ; preds = %46
  store i1 false, ptr %7, align 1
  br label %67

52:                                               ; preds = %46, %41
  br label %66

53:                                               ; preds = %36
  %54 = load ptr, ptr %10, align 8
  %55 = getelementptr inbounds nuw %"struct.llvm::TargetLoweringBase::AddrMode", ptr %54, i32 0, i32 2
  %56 = load i8, ptr %55, align 8
  %57 = trunc i8 %56 to i1
  br i1 %57, label %63, label %58

58:                                               ; preds = %53
  %59 = load ptr, ptr %10, align 8
  %60 = getelementptr inbounds nuw %"struct.llvm::TargetLoweringBase::AddrMode", ptr %59, i32 0, i32 1
  %61 = load i64, ptr %60, align 8
  %62 = icmp ne i64 %61, 0
  br i1 %62, label %63, label %64

63:                                               ; preds = %58, %53
  store i1 false, ptr %7, align 1
  br label %67

64:                                               ; preds = %58
  br label %66

65:                                               ; preds = %36
  store i1 false, ptr %7, align 1
  br label %67

66:                                               ; preds = %64, %52, %40
  store i1 true, ptr %7, align 1
  br label %67

67:                                               ; preds = %66, %65, %63, %51, %35, %29, %18
  %68 = load i1, ptr %7, align 1
  ret i1 %68
}