; Function Attrs: mustprogress nofree norecurse nosync nounwind willreturn memory(argmem: read) uwtable
define dso_local noundef zeroext i1 @_ZNK4llvm18TargetLoweringBase21isLegalAddressingModeERKNS_10DataLayoutERKNS0_8AddrModeEPNS_4TypeEjPNS_11InstructionE(ptr nocapture nonnull readnone align 8 %0, ptr nocapture nonnull readnone align 8 %1, ptr nocapture noundef nonnull readonly align 8 dereferenceable(40) %2, ptr nocapture readnone %3, i32 %4, ptr nocapture readnone %5) unnamed_addr #4 align 2 {
  %7 = getelementptr inbounds nuw i8, ptr %2, i64 32
  %8 = load i64, ptr %7, align 8
  %.not = icmp eq i64 %8, 0
  br i1 %.not, label %9, label %26

9:                                                ; preds = %6
  %10 = getelementptr inbounds nuw i8, ptr %2, i64 8
  %11 = load i64, ptr %10, align 8
  %12 = add i64 %11, 65535
  %or.cond = icmp ult i64 %12, 131070
  %13 = load ptr, ptr %2, align 8
  %.not11 = icmp eq ptr %13, null
  %or.cond18 = select i1 %or.cond, i1 %.not11, i1 false
  br i1 %or.cond18, label %14, label %26

14:                                               ; preds = %9
  %15 = getelementptr inbounds nuw i8, ptr %2, i64 24
  %16 = load i64, ptr %15, align 8
  switch i64 %16, label %26 [
    i64 0, label %25
    i64 1, label %17
    i64 2, label %21
  ]

17:                                               ; preds = %14
  %18 = getelementptr inbounds nuw i8, ptr %2, i64 16
  %19 = load i8, ptr %18, align 8
  %20 = trunc i8 %19 to i1
  %.not13 = icmp ne i64 %11, 0
  %or.cond15.not = and i1 %.not13, %20
  br i1 %or.cond15.not, label %26, label %25

21:                                               ; preds = %14
  %22 = getelementptr inbounds nuw i8, ptr %2, i64 16
  %23 = load i8, ptr %22, align 8
  %24 = trunc i8 %23 to i1
  %.not12 = icmp ne i64 %11, 0
  %or.cond17.not = or i1 %.not12, %24
  br i1 %or.cond17.not, label %26, label %25

25:                                               ; preds = %21, %17, %14
  br label %26

26:                                               ; preds = %14, %21, %17, %9, %6, %25
  %.0 = phi i1 [ true, %25 ], [ false, %6 ], [ false, %9 ], [ false, %17 ], [ false, %21 ], [ false, %14 ]
  ret i1 %.0
}